target datalayout = "e-m:e-p270:32:32-p271:32:32-p272:64:64-i64:64-i128:128-f80:128-n8:16:32:64-S128"
target triple = "x86_64-pc-linux-gnu"

@.str = private unnamed_addr constant [17 x i8] c" 000000000000\1000\00", align 1
@.str.1 = private unnamed_addr constant [17 x i8] c"\00\00\00\00\00\00\00\00\1E\0F\0F\0F\00\00\00\00\00", align 1

; Function Attrs: inlinehint mustprogress uwtable
define internal noundef i32 @_ZN6icu_77L11spanOneUTF8ERKNS_10UnicodeSetEPKhi(ptr noundef nonnull align 8 dereferenceable(200) %0, ptr noundef %1, i32 noundef %2) #4 {
  %4 = alloca i32, align 4
  %5 = alloca ptr, align 8
  %6 = alloca ptr, align 8
  %7 = alloca i32, align 4
  %8 = alloca i32, align 4
  %9 = alloca i32, align 4
  %10 = alloca i32, align 4
  %11 = alloca i8, align 1
  store ptr %0, ptr %5, align 8, !tbaa !8
  store ptr %1, ptr %6, align 8, !tbaa !39
  store i32 %2, ptr %7, align 4, !tbaa !12
  call void @llvm.lifetime.start.p0(i64 4, ptr %8) #11
  %12 = load ptr, ptr %6, align 8, !tbaa !39
  %13 = load i8, ptr %12, align 1, !tbaa !33
  %14 = zext i8 %13 to i32
  store i32 %14, ptr %8, align 4, !tbaa !12
  %15 = load i32, ptr %8, align 4, !tbaa !12
  %16 = and i32 %15, 128
  %17 = icmp eq i32 %16, 0
  br i1 %17, label %18, label %24

18:                                               ; preds = %3
  %19 = load ptr, ptr %5, align 8, !tbaa !8
  %20 = load i32, ptr %8, align 4, !tbaa !12
  %21 = call noundef signext i8 @_ZNK6icu_7710UnicodeSet8containsEi(ptr noundef nonnull align 8 dereferenceable(200) %19, i32 noundef %20)
  %22 = icmp ne i8 %21, 0
  %23 = select i1 %22, i32 1, i32 -1
  store i32 %23, ptr %4, align 4
  store i32 1, ptr %9, align 4
  br label %162

24:                                               ; preds = %3
  call void @llvm.lifetime.start.p0(i64 4, ptr %10) #11
  store i32 0, ptr %10, align 4, !tbaa !12
  br label %25

25:                                               ; preds = %24
  %26 = load ptr, ptr %6, align 8, !tbaa !39
  %27 = load i32, ptr %10, align 4, !tbaa !12
  %28 = add nsw i32 %27, 1
  store i32 %28, ptr %10, align 4, !tbaa !12
  %29 = sext i32 %27 to i64
  %30 = getelementptr inbounds i8, ptr %26, i64 %29
  %31 = load i8, ptr %30, align 1, !tbaa !33
  %32 = zext i8 %31 to i32
  store i32 %32, ptr %8, align 4, !tbaa !12
  %33 = load i32, ptr %8, align 4, !tbaa !12
  %34 = and i32 %33, 128
  %35 = icmp eq i32 %34, 0
  br i1 %35, label %148, label %36

36:                                               ; preds = %25
  call void @llvm.lifetime.start.p0(i64 1, ptr %11) #11
  store i8 0, ptr %11, align 1, !tbaa !33
  %37 = load i32, ptr %10, align 4, !tbaa !12
  %38 = load i32, ptr %7, align 4, !tbaa !12
  %39 = icmp ne i32 %37, %38
  br i1 %39, label %40, label %146

40:                                               ; preds = %36
  %41 = load i32, ptr %8, align 4, !tbaa !12
  %42 = icmp sge i32 %41, 224
  br i1 %42, label %43, label %120

43:                                               ; preds = %40
  %44 = load i32, ptr %8, align 4, !tbaa !12
  %45 = icmp slt i32 %44, 240
  br i1 %45, label %46, label %68

46:                                               ; preds = %43
  %47 = load i32, ptr %8, align 4, !tbaa !12
  %48 = and i32 %47, 15
  store i32 %48, ptr %8, align 4, !tbaa !12
  %49 = sext i32 %48 to i64
  %50 = getelementptr inbounds [17 x i8], ptr @.str, i64 0, i64 %49
  %51 = load i8, ptr %50, align 1, !tbaa !33
  %52 = sext i8 %51 to i32
  %53 = load ptr, ptr %6, align 8, !tbaa !39
  %54 = load i32, ptr %10, align 4, !tbaa !12
  %55 = sext i32 %54 to i64
  %56 = getelementptr inbounds i8, ptr %53, i64 %55
  %57 = load i8, ptr %56, align 1, !tbaa !33
  store i8 %57, ptr %11, align 1, !tbaa !33
  %58 = zext i8 %57 to i32
  %59 = ashr i32 %58, 5
  %60 = shl i32 1, %59
  %61 = and i32 %52, %60
  %62 = icmp ne i32 %61, 0
  br i1 %62, label %63, label %146

63:                                               ; preds = %46
  %64 = load i8, ptr %11, align 1, !tbaa !33
  %65 = zext i8 %64 to i32
  %66 = and i32 %65, 63
  %67 = trunc i32 %66 to i8
  store i8 %67, ptr %11, align 1, !tbaa !33
  br i1 true, label %110, label %146

68:                                               ; preds = %43
  %69 = load i32, ptr %8, align 4, !tbaa !12
  %70 = sub nsw i32 %69, 240
  store i32 %70, ptr %8, align 4, !tbaa !12
  %71 = icmp sle i32 %70, 4
  br i1 %71, label %72, label %146

72:                                               ; preds = %68
  %73 = load ptr, ptr %6, align 8, !tbaa !39
  %74 = load i32, ptr %10, align 4, !tbaa !12
  %75 = sext i32 %74 to i64
  %76 = getelementptr inbounds i8, ptr %73, i64 %75
  %77 = load i8, ptr %76, align 1, !tbaa !33
  store i8 %77, ptr %11, align 1, !tbaa !33
  %78 = zext i8 %77 to i32
  %79 = ashr i32 %78, 4
  %80 = sext i32 %79 to i64
  %81 = getelementptr inbounds [17 x i8], ptr @.str.1, i64 0, i64 %80
  %82 = load i8, ptr %81, align 1, !tbaa !33
  %83 = sext i8 %82 to i32
  %84 = load i32, ptr %8, align 4, !tbaa !12
  %85 = shl i32 1, %84
  %86 = and i32 %83, %85
  %87 = icmp ne i32 %86, 0
  br i1 %87, label %88, label %146

88:                                               ; preds = %72
  %89 = load i32, ptr %8, align 4, !tbaa !12
  %90 = shl i32 %89, 6
  %91 = load i8, ptr %11, align 1, !tbaa !33
  %92 = zext i8 %91 to i32
  %93 = and i32 %92, 63
  %94 = or i32 %90, %93
  store i32 %94, ptr %8, align 4, !tbaa !12
  %95 = load i32, ptr %10, align 4, !tbaa !12
  %96 = add nsw i32 %95, 1
  store i32 %96, ptr %10, align 4, !tbaa !12
  %97 = load i32, ptr %7, align 4, !tbaa !12
  %98 = icmp ne i32 %96, %97
  br i1 %98, label %99, label %146

99:                                               ; preds = %88
  %100 = load ptr, ptr %6, align 8, !tbaa !39
  %101 = load i32, ptr %10, align 4, !tbaa !12
  %102 = sext i32 %101 to i64
  %103 = getelementptr inbounds i8, ptr %100, i64 %102
  %104 = load i8, ptr %103, align 1, !tbaa !33
  %105 = zext i8 %104 to i32
  %106 = sub nsw i32 %105, 128
  %107 = trunc i32 %106 to i8
  store i8 %107, ptr %11, align 1, !tbaa !33
  %108 = zext i8 %107 to i32
  %109 = icmp sle i32 %108, 63
  br i1 %109, label %110, label %146

110:                                              ; preds = %99, %63
  %111 = load i32, ptr %8, align 4, !tbaa !12
  %112 = shl i32 %111, 6
  %113 = load i8, ptr %11, align 1, !tbaa !33
  %114 = zext i8 %113 to i32
  %115 = or i32 %112, %114
  store i32 %115, ptr %8, align 4, !tbaa !12
  %116 = load i32, ptr %10, align 4, !tbaa !12
  %117 = add nsw i32 %116, 1
  store i32 %117, ptr %10, align 4, !tbaa !12
  %118 = load i32, ptr %7, align 4, !tbaa !12
  %119 = icmp ne i32 %117, %118
  br i1 %119, label %126, label %146

120:                                              ; preds = %40
  %121 = load i32, ptr %8, align 4, !tbaa !12
  %122 = icmp sge i32 %121, 194
  br i1 %122, label %123, label %146

123:                                              ; preds = %120
  %124 = load i32, ptr %8, align 4, !tbaa !12
  %125 = and i32 %124, 31
  store i32 %125, ptr %8, align 4, !tbaa !12
  br i1 true, label %126, label %146

126:                                              ; preds = %123, %110
  %127 = load ptr, ptr %6, align 8, !tbaa !39
  %128 = load i32, ptr %10, align 4, !tbaa !12
  %129 = sext i32 %128 to i64
  %130 = getelementptr inbounds i8, ptr %127, i64 %129
  %131 = load i8, ptr %130, align 1, !tbaa !33
  %132 = zext i8 %131 to i32
  %133 = sub nsw i32 %132, 128
  %134 = trunc i32 %133 to i8
  store i8 %134, ptr %11, align 1, !tbaa !33
  %135 = zext i8 %134 to i32
  %136 = icmp sle i32 %135, 63
  br i1 %136, label %137, label %146

137:                                              ; preds = %126
  %138 = load i32, ptr %8, align 4, !tbaa !12
  %139 = shl i32 %138, 6
  %140 = load i8, ptr %11, align 1, !tbaa !33
  %141 = zext i8 %140 to i32
  %142 = or i32 %139, %141
  store i32 %142, ptr %8, align 4, !tbaa !12
  %143 = load i32, ptr %10, align 4, !tbaa !12
  %144 = add nsw i32 %143, 1
  store i32 %144, ptr %10, align 4, !tbaa !12
  br i1 true, label %145, label %146

145:                                              ; preds = %137
  br label %147

146:                                              ; preds = %137, %126, %123, %120, %110, %99, %88, %72, %68, %63, %46, %36
  store i32 65533, ptr %8, align 4, !tbaa !12
  br label %147

147:                                              ; preds = %146, %145
  call void @llvm.lifetime.end.p0(i64 1, ptr %11) #11
  br label %148

148:                                              ; preds = %147, %25
  br label %149

149:                                              ; preds = %148
  br label %150

150:                                              ; preds = %149
  %151 = load ptr, ptr %5, align 8, !tbaa !8
  %152 = load i32, ptr %8, align 4, !tbaa !12
  %153 = call noundef signext i8 @_ZNK6icu_7710UnicodeSet8containsEi(ptr noundef nonnull align 8 dereferenceable(200) %151, i32 noundef %152)
  %154 = icmp ne i8 %153, 0
  br i1 %154, label %155, label %157

155:                                              ; preds = %150
  %156 = load i32, ptr %10, align 4, !tbaa !12
  br label %160

157:                                              ; preds = %150
  %158 = load i32, ptr %10, align 4, !tbaa !12
  %159 = sub nsw i32 0, %158
  br label %160

160:                                              ; preds = %157, %155
  %161 = phi i32 [ %156, %155 ], [ %159, %157 ]
  store i32 %161, ptr %4, align 4
  store i32 1, ptr %9, align 4
  call void @llvm.lifetime.end.p0(i64 4, ptr %10) #11
  br label %162

162:                                              ; preds = %160, %18
  call void @llvm.lifetime.end.p0(i64 4, ptr %8) #11
  %163 = load i32, ptr %4, align 4
  ret i32 %163
}