; Function Attrs: inlinehint mustprogress uwtable
define internal fastcc noundef range(i32 -4, 5) i32 @_ZN6icu_77L11spanOneUTF8ERKNS_10UnicodeSetEPKhi(ptr noundef nonnull align 8 dereferenceable(200) %0, ptr noundef readonly captures(none) %1, i32 noundef %2) unnamed_addr #9 {
  %4 = load i8, ptr %1, align 1, !tbaa !27
  %5 = zext i8 %4 to i32
  %6 = icmp sgt i8 %4, -1
  br i1 %6, label %7, label %10

7:                                                ; preds = %3
  %8 = tail call noundef signext i8 @_ZNK6icu_7710UnicodeSet8containsEi(ptr noundef nonnull align 8 dereferenceable(200) %0, i32 noundef %5)
  %.not58 = icmp eq i8 %8, 0
  %9 = select i1 %.not58, i32 -1, i32 1
  br label %75

10:                                               ; preds = %3
  %.not = icmp eq i32 %2, 1
  br i1 %.not, label %71, label %11

11:                                               ; preds = %10
  %12 = icmp samesign ugt i8 %4, -33
  br i1 %12, label %13, label %56

13:                                               ; preds = %11
  %14 = icmp samesign ult i8 %4, -16
  br i1 %14, label %15, label %29

15:                                               ; preds = %13
  %16 = and i32 %5, 15
  %17 = zext nneg i32 %16 to i64
  %18 = getelementptr inbounds nuw [17 x i8], ptr @.str, i64 0, i64 %17
  %19 = load i8, ptr %18, align 1, !tbaa !27
  %20 = zext i8 %19 to i32
  %21 = getelementptr inbounds nuw i8, ptr %1, i64 1
  %22 = load i8, ptr %21, align 1, !tbaa !27
  %23 = lshr i8 %22, 5
  %24 = zext nneg i8 %23 to i32
  %25 = shl nuw nsw i32 1, %24
  %26 = and i32 %25, %20
  %.not55 = icmp eq i32 %26, 0
  br i1 %.not55, label %71, label %27

27:                                               ; preds = %15
  %28 = and i8 %22, 63
  br label %52

29:                                               ; preds = %13
  %30 = add nsw i32 %5, -240
  %31 = icmp samesign ult i8 %4, -11
  br i1 %31, label %32, label %71

32:                                               ; preds = %29
  %33 = getelementptr inbounds nuw i8, ptr %1, i64 1
  %34 = load i8, ptr %33, align 1, !tbaa !27
  %35 = zext i8 %34 to i32
  %36 = lshr i32 %35, 4
  %37 = zext nneg i32 %36 to i64
  %38 = getelementptr inbounds nuw [17 x i8], ptr @.str.1, i64 0, i64 %37
  %39 = load i8, ptr %38, align 1, !tbaa !27
  %40 = sext i8 %39 to i32
  %41 = shl nuw nsw i32 1, %30
  %42 = and i32 %41, %40
  %.not53 = icmp eq i32 %42, 0
  br i1 %.not53, label %71, label %43

43:                                               ; preds = %32
  %.not54 = icmp eq i32 %2, 2
  br i1 %.not54, label %71, label %44

44:                                               ; preds = %43
  %45 = shl nuw nsw i32 %30, 6
  %46 = and i32 %35, 63
  %47 = or disjoint i32 %46, %45
  %48 = getelementptr inbounds nuw i8, ptr %1, i64 2
  %49 = load i8, ptr %48, align 1, !tbaa !27
  %50 = xor i8 %49, -128
  %51 = icmp ult i8 %50, 64
  br i1 %51, label %52, label %71

52:                                               ; preds = %27, %44
  %.041 = phi i32 [ %16, %27 ], [ %47, %44 ]
  %.1 = phi i32 [ 2, %27 ], [ 3, %44 ]
  %.0 = phi i8 [ %28, %27 ], [ %50, %44 ]
  %53 = shl nuw nsw i32 %.041, 6
  %54 = zext nneg i8 %.0 to i32
  %55 = or disjoint i32 %53, %54
  %.not56 = icmp eq i32 %.1, %2
  br i1 %.not56, label %71, label %60

56:                                               ; preds = %11
  %57 = icmp samesign ugt i8 %4, -63
  br i1 %57, label %58, label %71

58:                                               ; preds = %56
  %59 = and i32 %5, 31
  br label %60

60:                                               ; preds = %58, %52
  %.142 = phi i32 [ %55, %52 ], [ %59, %58 ]
  %.2 = phi i32 [ %.1, %52 ], [ 1, %58 ]
  %61 = zext nneg i32 %.2 to i64
  %62 = getelementptr inbounds nuw i8, ptr %1, i64 %61
  %63 = load i8, ptr %62, align 1, !tbaa !27
  %64 = xor i8 %63, -128
  %65 = icmp ult i8 %64, 64
  br i1 %65, label %66, label %71

66:                                               ; preds = %60
  %67 = zext nneg i8 %64 to i32
  %68 = shl nuw nsw i32 %.142, 6
  %69 = or disjoint i32 %68, %67
  %70 = add nuw nsw i32 %.2, 1
  br label %71

71:                                               ; preds = %66, %60, %56, %52, %44, %43, %32, %29, %15, %10
  %.243 = phi i32 [ %69, %66 ], [ 65533, %60 ], [ 65533, %56 ], [ 65533, %52 ], [ 65533, %44 ], [ 65533, %43 ], [ 65533, %32 ], [ 65533, %29 ], [ 65533, %15 ], [ 65533, %10 ]
  %.3 = phi i32 [ %70, %66 ], [ %.2, %60 ], [ 1, %56 ], [ %2, %52 ], [ 2, %44 ], [ 2, %43 ], [ 1, %32 ], [ 1, %29 ], [ 1, %15 ], [ 1, %10 ]
  %72 = tail call noundef signext i8 @_ZNK6icu_7710UnicodeSet8containsEi(ptr noundef nonnull align 8 dereferenceable(200) %0, i32 noundef %.243)
  %.not57 = icmp eq i8 %72, 0
  %73 = sub nsw i32 0, %.3
  %74 = select i1 %.not57, i32 %73, i32 %.3
  br label %75

75:                                               ; preds = %71, %7
  %.045 = phi i32 [ %9, %7 ], [ %74, %71 ]
  ret i32 %.045
}